; Function Attrs: mustprogress uwtable
define hidden void @_ZN4ncnn16InnerProduct_x86C2Ev(ptr noundef nonnull align 8 dereferenceable(744) %0) unnamed_addr #3 align 2 personality ptr @__gxx_personality_v0 {
  tail call void @_ZN4ncnn12InnerProductC2Ev(ptr noundef nonnull align 8 dereferenceable(592) %0)
  store ptr getelementptr inbounds nuw inrange(-16, 80) (i8, ptr @_ZTVN4ncnn16InnerProduct_x86E, i64 16), ptr %0, align 8, !tbaa !4
  %2 = getelementptr inbounds nuw i8, ptr %0, i64 600
  %3 = getelementptr inbounds nuw i8, ptr %0, i64 632
  %4 = getelementptr inbounds nuw i8, ptr %0, i64 664
  %5 = getelementptr inbounds nuw i8, ptr %0, i64 704
  %6 = getelementptr inbounds nuw i8, ptr %0, i64 736
  store i64 0, ptr %6, align 8, !tbaa !17
  %7 = getelementptr inbounds nuw i8, ptr %0, i64 11
  tail call void @llvm.memset.p0.i64(ptr noundef nonnull align 8 dereferenceable(28) %2, i8 0, i64 28, i1 false)
  tail call void @llvm.memset.p0.i64(ptr noundef nonnull align 8 dereferenceable(28) %3, i8 0, i64 28, i1 false)
  tail call void @llvm.memset.p0.i64(ptr noundef nonnull align 8 dereferenceable(36) %4, i8 0, i64 36, i1 false)
  tail call void @llvm.memset.p0.i64(ptr noundef nonnull align 8 dereferenceable(28) %5, i8 0, i64 28, i1 false)
  store i8 1, ptr %7, align 1, !tbaa !68
  %8 = getelementptr inbounds nuw i8, ptr %0, i64 592
  store ptr null, ptr %8, align 8, !tbaa !18
  ret void
}